Certificate:
    Data:
        Version: 3 (0x2)
        Serial Number: 1 (0x1)
        Signature Algorithm: sha1WithRSAEncryption
        Issuer: C=CN, ST=Shanghai, L=Shanghai, O=Zhong Cheng, OU=berialcheng.com
        Validity
            Not Before: Mar 30 11:59:34 2017 GMT
            Not After : Mar 30 11:59:34 2018 GMT
        Subject: C=CN, ST=Shanghai, O=Zhong Cheng, OU=berialcheng.com, CN=berialcheng.com
        Subject Public Key Info:
            Public Key Algorithm: rsaEncryption
            RSA Public Key: (2048 bit)
                Modulus (2048 bit):
                    00:a2:ee:28:db:78:98:f2:6d:a0:fc:84:8c:ec:a3:
                    aa:76:a0:44:00:c1:55:98:97:5d:ec:6c:85:b6:e2:
                    59:fd:f5:9c:df:f0:99:af:43:56:e6:c9:f8:95:74:
                    a6:8f:1b:b2:a2:ef:b7:24:35:a5:2b:9b:6c:82:b1:
                    0b:5a:ba:98:34:51:aa:7b:d5:52:83:ba:66:a7:8c:
                    be:b8:ab:bb:64:e6:8b:23:6a:f5:7e:e2:0e:e8:d8:
                    4d:5b:9c:f2:05:e0:a1:b4:34:9b:53:15:36:48:ca:
                    cb:9b:3c:53:7f:0d:59:1a:a7:6a:6d:e8:bd:b9:ae:
                    01:1b:ee:4f:41:2c:10:a6:3c:4e:fb:83:ab:5a:5c:
                    54:fc:96:c5:8e:25:e1:9f:2f:f1:85:7a:76:7a:c6:
                    d3:a0:b0:2c:fe:bf:35:89:fc:5e:ea:1b:3b:da:11:
                    c3:84:13:50:56:ed:56:c6:bf:e7:21:b1:04:1e:05:
                    68:df:bd:35:76:35:74:de:a6:a6:63:6f:5d:24:42:
                    cd:24:71:57:75:79:32:2c:19:f7:8e:39:11:b3:bf:
                    0f:bc:17:da:d3:4c:17:6d:81:a9:77:ef:7d:43:0f:
                    f5:a5:25:e1:21:c0:52:bd:23:b2:bf:e9:c1:be:e4:
                    a1:b0:64:5c:3c:25:84:d6:6e:a0:ef:37:66:99:e1:
                    4e:77
                Exponent: 65537 (0x10001)
        X509v3 extensions:
            X509v3 Basic Constraints: 
                CA:FALSE
            Netscape Comment: 
                OpenSSL Generated Certificate
            X509v3 Subject Key Identifier: 
                76:63:26:B9:70:4F:92:61:F1:18:D9:9C:30:C4:E0:9E:19:AC:92:C9
            X509v3 Authority Key Identifier: 
                keyid:75:08:76:40:2F:61:A0:0B:BE:15:F1:5D:3C:08:3F:E6:68:DB:FD:76

    Signature Algorithm: sha1WithRSAEncryption
        3e:3e:15:63:99:45:6c:d6:f4:81:33:0d:9e:0e:ed:bf:e7:7b:
        05:65:54:7a:0f:be:27:df:1a:a2:35:39:16:a4:9f:e0:b2:11:
        73:b1:cc:1a:f5:f9:11:01:49:d0:f4:ac:98:14:4c:2d:03:bc:
        16:d2:88:dd:8e:6f:e4:52:84:ea:d1:56:6d:ea:f9:fd:85:87:
        d2:07:c9:02:c9:9c:62:ab:93:e9:85:b7:c7:39:08:18:c8:79:
        e7:4d:06:f7:fa:c2:cc:03:65:94:f0:ad:71:66:d5:c4:59:cc:
        f5:37:60:b6:39:7f:e7:d6:79:71:1f:6b:48:81:ea:58:1f:56:
        11:2c:76:8a:3b:95:9a:e8:37:b7:65:f6:fb:61:c7:37:09:ae:
        a2:8a:6f:74:f5:1a:3d:32:38:40:83:df:bd:51:e7:83:86:e3:
        ea:aa:c4:4d:13:25:af:07:23:66:fa:9f:4d:c9:59:17:9e:84:
        ac:e8:bd:7a:4a:0c:6a:6c:34:fb:29:e4:8e:9c:bf:d7:e9:ba:
        7b:cf:42:55:c0:ec:5e:71:ed:59:79:48:2a:11:59:57:ea:ee:
        16:0e:ef:33:71:b8:8b:07:89:71:51:46:22:5c:a5:15:fb:7c:
        b2:24:26:57:f1:11:e6:49:f7:b3:9b:b1:03:bf:b1:88:46:2a:
        68:87:55:08
-----BEGIN CERTIFICATE-----
MIIDwzCCAqugAwIBAgIBATANBgkqhkiG9w0BAQUFADBjMQswCQYDVQQGEwJDTjER
MA8GA1UECBMIU2hhbmdoYWkxETAPBgNVBAcTCFNoYW5naGFpMRQwEgYDVQQKEwta
aG9uZyBDaGVuZzEYMBYGA1UECxMPYmVyaWFsY2hlbmcuY29tMB4XDTE3MDMzMDEx
NTkzNFoXDTE4MDMzMDExNTkzNFowajELMAkGA1UEBhMCQ04xETAPBgNVBAgTCFNo
YW5naGFpMRQwEgYDVQQKEwtaaG9uZyBDaGVuZzEYMBYGA1UECxMPYmVyaWFsY2hl
bmcuY29tMRgwFgYDVQQDEw9iZXJpYWxjaGVuZy5jb20wggEiMA0GCSqGSIb3DQEB
AQUAA4IBDwAwggEKAoIBAQCi7ijbeJjybaD8hIzso6p2oEQAwVWYl13sbIW24ln9
9Zzf8JmvQ1bmyfiVdKaPG7Ki77ckNaUrm2yCsQtaupg0Uap71VKDumanjL64q7tk
5osjavV+4g7o2E1bnPIF4KG0NJtTFTZIysubPFN/DVkap2pt6L25rgEb7k9BLBCm
PE77g6taXFT8lsWOJeGfL/GFenZ6xtOgsCz+vzWJ/F7qGzvaEcOEE1BW7VbGv+ch
sQQeBWjfvTV2NXTepqZjb10kQs0kcVd1eTIsGfeOORGzvw+8F9rTTBdtgal3731D
D/WlJeEhwFK9I7K/6cG+5KGwZFw8JYTWbqDvN2aZ4U53AgMBAAGjezB5MAkGA1Ud
EwQCMAAwLAYJYIZIAYb4QgENBB8WHU9wZW5TU0wgR2VuZXJhdGVkIENlcnRpZmlj
YXRlMB0GA1UdDgQWBBR2Yya5cE+SYfEY2ZwwxOCeGaySyTAfBgNVHSMEGDAWgBR1
CHZAL2GgC74V8V08CD/maNv9djANBgkqhkiG9w0BAQUFAAOCAQEAPj4VY5lFbNb0
gTMNng7tv+d7BWVUeg++J98aojU5FqSf4LIRc7HMGvX5EQFJ0PSsmBRMLQO8FtKI
3Y5v5FKE6tFWber5/YWH0gfJAsmcYquT6YW3xzkIGMh5500G9/rCzANllPCtcWbV
xFnM9Tdgtjl/59Z5cR9rSIHqWB9WESx2ijuVmug3t2X2+2HHNwmuoopvdPUaPTI4
QIPfvVHng4bj6qrETRMlrwcjZvqfTclZF56ErOi9ekoMamw0+ynkjpy/1+m6e89C
VcDsXnHtWXlIKhFZV+ruFg7vM3G4iweJcVFGIlylFft8siQmV/ER5kn3s5uxA7+x
iEYqaIdVCA==
-----END CERTIFICATE-----
